target datalayout = "e-m:e-p270:32:32-p271:32:32-p272:64:64-i64:64-i128:128-f80:128-n8:16:32:64-S128"
target triple = "x86_64-pc-linux-gnu"

@.str = private unnamed_addr constant [8 x i8] c"AES 128\00", align 1
@aes_128_key = internal constant [16 x i8] c"+~\15\16(\AE\D2\A6\AB\F7\15\88\09\CFO<", align 16
@aes_128_subkeys = internal constant [2 x [16 x i8]] [[16 x i8] c"\FB\EE\D6\185q3f|\85\E0\8Fr6\A8\DE", [16 x i8] c"\F7\DD\AC0j\E2f\CC\F9\0B\C1\1E\E4mQ;"], align 16
@test_message = internal constant [64 x i8] c"k\C1\BE\E2.@\9F\96\E9=~\11s\93\17*\AE-\8AW\1E\03\AC\9C\9E\B7o\ACE\AF\8EQ0\C8\1CF\A3\\\E4\11\E5\FB\C1\19\1A\0AR\EF\F6\9F$E\DFO\9B\17\AD+A{\E6l7\10", align 16
@aes_message_lengths = internal constant [4 x i32] [i32 0, i32 16, i32 20, i32 64], align 16
@aes_128_expected_result = internal constant [4 x [16 x i8]] [[16 x i8] c"\BB\1Di)\E9Y7(\7F\A3}\12\9BugF", [16 x i8] c"\07\0A\16\B4kMAD\F7\9B\DD\9D\D0J(|", [16 x i8] c"}\85D\9E\A6\EA\19\C8#\A7\BFx\83}\FA\DE", [16 x i8] c"Q\F0\BE\BF~;\9D\92\FCIt\17y6<\FE"], align 16
@.str.1 = private unnamed_addr constant [8 x i8] c"AES 192\00", align 1
@aes_192_key = internal constant [24 x i8] c"\8Es\B0\F7\DA\0EdR\C8\10\F3+\80\90y\E5b\F8\EA\D2R,k{", align 16
@aes_192_subkeys = internal constant [2 x [16 x i8]] [[16 x i8] c"D\8A[\1C\93QK'>\E6C\9D\D4\DA\A2\96", [16 x i8] c"\89\14\B69&\A2\96N}\CC\87;\A9\B5E,"], align 16
@aes_192_expected_result = internal constant [4 x [16 x i8]] [[16 x i8] c"\D1}\DFF\AD\AA\CD\E51\CA\C4\83\DEz\93g", [16 x i8] c"\9E\99\A7\BF1\E7\10\90\06b\F6^a|Q\84", [16 x i8] c"=u\C1\94\ED\96\07\04D\A9\FA~\C7@\EC\F8", [16 x i8] c"\A1\D5\DF\0E\EDy\0FyMwX\96Y\F3\9A\11"], align 16
@.str.2 = private unnamed_addr constant [8 x i8] c"AES 256\00", align 1
@aes_256_key = internal constant [32 x i8] c"`=\EB\10\15\CAq\BE+s\AE\F0\85}w\81\1F5,\07;a\08\D7-\98\10\A3\09\14\DF\F4", align 16
@aes_256_subkeys = internal constant [2 x [16 x i8]] [[16 x i8] c"\CA\D1\ED\03)\9E\ED\AC.\9A\99\80\86!P/", [16 x i8] c"\95\A3\DA\06S=\DBX]53\01\0CB\A0\D9"], align 16
@aes_256_expected_result = internal constant [4 x [16 x i8]] [[16 x i8] c"\02\89b\F6\1B{\F8\9E\FCkU\1FFg\D9\83", [16 x i8] c"(\A7\02?E.\8F\82\BDK\F2\8D\8C7\C3\\", [16 x i8] c"\15g'\DC\08x\94J\02<\1F\E0;\ADm\93", [16 x i8] c"\E1\99!\90T\9Fn\D5ij,\05l1T\10"], align 16
@.str.3 = private unnamed_addr constant [11 x i8] c"3DES 2 key\00", align 1
@des3_2key_key = internal constant [24 x i8] c"\01#Eg\89\AB\CD\EF#Eg\89\AB\CD\EF\01\01#Eg\89\AB\CD\EF", align 16
@des3_2key_subkeys = internal constant [2 x [8 x i8]] [[8 x i8] c"\0D\D2\CBz=\88\88\D9", [8 x i8] c"\1B\A5\96\F4{\11\11\B2"], align 16
@des3_message_lengths = internal constant [4 x i32] [i32 0, i32 16, i32 20, i32 32], align 16
@des3_2key_expected_result = internal constant [4 x [8 x i8]] [[8 x i8] c"y\CER\A7\F7\86\A9`", [8 x i8] c"\CC\18\A0\B7\9A\F2A;", [8 x i8] c"\C0m7~\CD\10\19i", [8 x i8] c"\9C\D35\80\F9\B6M\FB"], align 16
@.str.4 = private unnamed_addr constant [11 x i8] c"3DES 3 key\00", align 1
@des3_3key_key = internal constant [24 x i8] c"\01#Eg\89\AA\CD\EF#Eg\89\AB\CD\EF\01Eg\89\AB\CD\EF\01#", align 16
@des3_3key_subkeys = internal constant [2 x [8 x i8]] [[8 x i8] c"\9Dt\E793\17\96\C0", [8 x i8] c":\E9\CErf/-\9B"], align 16
@des3_3key_expected_result = internal constant [4 x [8 x i8]] [[8 x i8] c"}\B0\D3}\F96\C5P", [8 x i8] c"0#\9C\F1\F5.f\09", [8 x i8] c"l\9F>\E4\92?k\E2", [8 x i8] c"\99B\9B\D0\BFy\04\E5"], align 16
@.str.5 = private unnamed_addr constant [2 x i8] c"\0A\00", align 1

; Function Attrs: nounwind uwtable
define hidden i32 @mbedtls_cmac_self_test(i32 noundef %0) #0 {
  %2 = alloca i32, align 4
  %3 = alloca i32, align 4
  %4 = alloca i32, align 4
  %5 = alloca i32, align 4
  store i32 %0, ptr %3, align 4, !tbaa !17
  call void @llvm.lifetime.start.p0(i64 4, ptr %4) #11
  store i32 -110, ptr %4, align 4, !tbaa !17
  %6 = load i32, ptr %3, align 4, !tbaa !17
  %7 = call i32 @cmac_test_subkeys(i32 noundef %6, ptr noundef @.str, ptr noundef @aes_128_key, i32 noundef 128, ptr noundef @aes_128_subkeys, i32 noundef 2, i32 noundef 16, i32 noundef 4)
  store i32 %7, ptr %4, align 4, !tbaa !17
  %8 = icmp ne i32 %7, 0
  br i1 %8, label %9, label %11

9:                                                ; preds = %1
  %10 = load i32, ptr %4, align 4, !tbaa !17
  store i32 %10, ptr %2, align 4
  store i32 1, ptr %5, align 4
  br label %77

11:                                               ; preds = %1
  %12 = load i32, ptr %3, align 4, !tbaa !17
  %13 = call i32 @cmac_test_wth_cipher(i32 noundef %12, ptr noundef @.str, ptr noundef @aes_128_key, i32 noundef 128, ptr noundef @test_message, ptr noundef @aes_message_lengths, ptr noundef @aes_128_expected_result, i32 noundef 2, i32 noundef 16, i32 noundef 4)
  store i32 %13, ptr %4, align 4, !tbaa !17
  %14 = icmp ne i32 %13, 0
  br i1 %14, label %15, label %17

15:                                               ; preds = %11
  %16 = load i32, ptr %4, align 4, !tbaa !17
  store i32 %16, ptr %2, align 4
  store i32 1, ptr %5, align 4
  br label %77

17:                                               ; preds = %11
  %18 = load i32, ptr %3, align 4, !tbaa !17
  %19 = call i32 @cmac_test_subkeys(i32 noundef %18, ptr noundef @.str.1, ptr noundef @aes_192_key, i32 noundef 192, ptr noundef @aes_192_subkeys, i32 noundef 3, i32 noundef 16, i32 noundef 4)
  store i32 %19, ptr %4, align 4, !tbaa !17
  %20 = icmp ne i32 %19, 0
  br i1 %20, label %21, label %23

21:                                               ; preds = %17
  %22 = load i32, ptr %4, align 4, !tbaa !17
  store i32 %22, ptr %2, align 4
  store i32 1, ptr %5, align 4
  br label %77

23:                                               ; preds = %17
  %24 = load i32, ptr %3, align 4, !tbaa !17
  %25 = call i32 @cmac_test_wth_cipher(i32 noundef %24, ptr noundef @.str.1, ptr noundef @aes_192_key, i32 noundef 192, ptr noundef @test_message, ptr noundef @aes_message_lengths, ptr noundef @aes_192_expected_result, i32 noundef 3, i32 noundef 16, i32 noundef 4)
  store i32 %25, ptr %4, align 4, !tbaa !17
  %26 = icmp ne i32 %25, 0
  br i1 %26, label %27, label %29

27:                                               ; preds = %23
  %28 = load i32, ptr %4, align 4, !tbaa !17
  store i32 %28, ptr %2, align 4
  store i32 1, ptr %5, align 4
  br label %77

29:                                               ; preds = %23
  %30 = load i32, ptr %3, align 4, !tbaa !17
  %31 = call i32 @cmac_test_subkeys(i32 noundef %30, ptr noundef @.str.2, ptr noundef @aes_256_key, i32 noundef 256, ptr noundef @aes_256_subkeys, i32 noundef 4, i32 noundef 16, i32 noundef 4)
  store i32 %31, ptr %4, align 4, !tbaa !17
  %32 = icmp ne i32 %31, 0
  br i1 %32, label %33, label %35

33:                                               ; preds = %29
  %34 = load i32, ptr %4, align 4, !tbaa !17
  store i32 %34, ptr %2, align 4
  store i32 1, ptr %5, align 4
  br label %77

35:                                               ; preds = %29
  %36 = load i32, ptr %3, align 4, !tbaa !17
  %37 = call i32 @cmac_test_wth_cipher(i32 noundef %36, ptr noundef @.str.2, ptr noundef @aes_256_key, i32 noundef 256, ptr noundef @test_message, ptr noundef @aes_message_lengths, ptr noundef @aes_256_expected_result, i32 noundef 4, i32 noundef 16, i32 noundef 4)
  store i32 %37, ptr %4, align 4, !tbaa !17
  %38 = icmp ne i32 %37, 0
  br i1 %38, label %39, label %41

39:                                               ; preds = %35
  %40 = load i32, ptr %4, align 4, !tbaa !17
  store i32 %40, ptr %2, align 4
  store i32 1, ptr %5, align 4
  br label %77

41:                                               ; preds = %35
  %42 = load i32, ptr %3, align 4, !tbaa !17
  %43 = call i32 @cmac_test_subkeys(i32 noundef %42, ptr noundef @.str.3, ptr noundef @des3_2key_key, i32 noundef 192, ptr noundef @des3_2key_subkeys, i32 noundef 36, i32 noundef 8, i32 noundef 4)
  store i32 %43, ptr %4, align 4, !tbaa !17
  %44 = icmp ne i32 %43, 0
  br i1 %44, label %45, label %47

45:                                               ; preds = %41
  %46 = load i32, ptr %4, align 4, !tbaa !17
  store i32 %46, ptr %2, align 4
  store i32 1, ptr %5, align 4
  br label %77

47:                                               ; preds = %41
  %48 = load i32, ptr %3, align 4, !tbaa !17
  %49 = call i32 @cmac_test_wth_cipher(i32 noundef %48, ptr noundef @.str.3, ptr noundef @des3_2key_key, i32 noundef 192, ptr noundef @test_message, ptr noundef @des3_message_lengths, ptr noundef @des3_2key_expected_result, i32 noundef 36, i32 noundef 8, i32 noundef 4)
  store i32 %49, ptr %4, align 4, !tbaa !17
  %50 = icmp ne i32 %49, 0
  br i1 %50, label %51, label %53

51:                                               ; preds = %47
  %52 = load i32, ptr %4, align 4, !tbaa !17
  store i32 %52, ptr %2, align 4
  store i32 1, ptr %5, align 4
  br label %77

53:                                               ; preds = %47
  %54 = load i32, ptr %3, align 4, !tbaa !17
  %55 = call i32 @cmac_test_subkeys(i32 noundef %54, ptr noundef @.str.4, ptr noundef @des3_3key_key, i32 noundef 192, ptr noundef @des3_3key_subkeys, i32 noundef 36, i32 noundef 8, i32 noundef 4)
  store i32 %55, ptr %4, align 4, !tbaa !17
  %56 = icmp ne i32 %55, 0
  br i1 %56, label %57, label %59

57:                                               ; preds = %53
  %58 = load i32, ptr %4, align 4, !tbaa !17
  store i32 %58, ptr %2, align 4
  store i32 1, ptr %5, align 4
  br label %77

59:                                               ; preds = %53
  %60 = load i32, ptr %3, align 4, !tbaa !17
  %61 = call i32 @cmac_test_wth_cipher(i32 noundef %60, ptr noundef @.str.4, ptr noundef @des3_3key_key, i32 noundef 192, ptr noundef @test_message, ptr noundef @des3_message_lengths, ptr noundef @des3_3key_expected_result, i32 noundef 36, i32 noundef 8, i32 noundef 4)
  store i32 %61, ptr %4, align 4, !tbaa !17
  %62 = icmp ne i32 %61, 0
  br i1 %62, label %63, label %65

63:                                               ; preds = %59
  %64 = load i32, ptr %4, align 4, !tbaa !17
  store i32 %64, ptr %2, align 4
  store i32 1, ptr %5, align 4
  br label %77

65:                                               ; preds = %59
  %66 = load i32, ptr %3, align 4, !tbaa !17
  %67 = call i32 @test_aes128_cmac_prf(i32 noundef %66)
  store i32 %67, ptr %4, align 4, !tbaa !17
  %68 = icmp ne i32 %67, 0
  br i1 %68, label %69, label %71

69:                                               ; preds = %65
  %70 = load i32, ptr %4, align 4, !tbaa !17
  store i32 %70, ptr %2, align 4
  store i32 1, ptr %5, align 4
  br label %77

71:                                               ; preds = %65
  %72 = load i32, ptr %3, align 4, !tbaa !17
  %73 = icmp ne i32 %72, 0
  br i1 %73, label %74, label %76

74:                                               ; preds = %71
  %75 = call i32 (ptr, ...) @printf(ptr noundef @.str.5)
  br label %76

76:                                               ; preds = %74, %71
  store i32 0, ptr %2, align 4
  store i32 1, ptr %5, align 4
  br label %77

77:                                               ; preds = %76, %69, %63, %57, %51, %45, %39, %33, %27, %21, %15, %9
  call void @llvm.lifetime.end.p0(i64 4, ptr %4) #11
  %78 = load i32, ptr %2, align 4
  ret i32 %78
}