; Function Attrs: nounwind uwtable
define hidden i32 @mbedtls_cmac_self_test(i32 noundef %0) local_unnamed_addr #0 {
  %2 = tail call fastcc i32 @cmac_test_subkeys(i32 noundef %0, ptr noundef nonnull @.str, ptr noundef nonnull @aes_128_key, i32 noundef 128, ptr noundef nonnull @aes_128_subkeys, i32 noundef 2, i32 noundef 16)
  %.not = icmp eq i32 %2, 0
  br i1 %.not, label %3, label %25

3:                                                ; preds = %1
  %4 = tail call fastcc i32 @cmac_test_wth_cipher(i32 noundef %0, ptr noundef nonnull @.str, ptr noundef nonnull @aes_128_key, i32 noundef 128, ptr noundef nonnull @aes_message_lengths, ptr noundef nonnull @aes_128_expected_result, i32 noundef 2, i32 noundef 16)
  %.not35 = icmp eq i32 %4, 0
  br i1 %.not35, label %5, label %25

5:                                                ; preds = %3
  %6 = tail call fastcc i32 @cmac_test_subkeys(i32 noundef %0, ptr noundef nonnull @.str.1, ptr noundef nonnull @aes_192_key, i32 noundef 192, ptr noundef nonnull @aes_192_subkeys, i32 noundef 3, i32 noundef 16)
  %.not36 = icmp eq i32 %6, 0
  br i1 %.not36, label %7, label %25

7:                                                ; preds = %5
  %8 = tail call fastcc i32 @cmac_test_wth_cipher(i32 noundef %0, ptr noundef nonnull @.str.1, ptr noundef nonnull @aes_192_key, i32 noundef 192, ptr noundef nonnull @aes_message_lengths, ptr noundef nonnull @aes_192_expected_result, i32 noundef 3, i32 noundef 16)
  %.not37 = icmp eq i32 %8, 0
  br i1 %.not37, label %9, label %25

9:                                                ; preds = %7
  %10 = tail call fastcc i32 @cmac_test_subkeys(i32 noundef %0, ptr noundef nonnull @.str.2, ptr noundef nonnull @aes_256_key, i32 noundef 256, ptr noundef nonnull @aes_256_subkeys, i32 noundef 4, i32 noundef 16)
  %.not38 = icmp eq i32 %10, 0
  br i1 %.not38, label %11, label %25

11:                                               ; preds = %9
  %12 = tail call fastcc i32 @cmac_test_wth_cipher(i32 noundef %0, ptr noundef nonnull @.str.2, ptr noundef nonnull @aes_256_key, i32 noundef 256, ptr noundef nonnull @aes_message_lengths, ptr noundef nonnull @aes_256_expected_result, i32 noundef 4, i32 noundef 16)
  %.not39 = icmp eq i32 %12, 0
  br i1 %.not39, label %13, label %25

13:                                               ; preds = %11
  %14 = tail call fastcc i32 @cmac_test_subkeys(i32 noundef %0, ptr noundef nonnull @.str.3, ptr noundef nonnull @des3_2key_key, i32 noundef 192, ptr noundef nonnull @des3_2key_subkeys, i32 noundef 36, i32 noundef 8)
  %.not40 = icmp eq i32 %14, 0
  br i1 %.not40, label %15, label %25

15:                                               ; preds = %13
  %16 = tail call fastcc i32 @cmac_test_wth_cipher(i32 noundef %0, ptr noundef nonnull @.str.3, ptr noundef nonnull @des3_2key_key, i32 noundef 192, ptr noundef nonnull @des3_message_lengths, ptr noundef nonnull @des3_2key_expected_result, i32 noundef 36, i32 noundef 8)
  %.not41 = icmp eq i32 %16, 0
  br i1 %.not41, label %17, label %25

17:                                               ; preds = %15
  %18 = tail call fastcc i32 @cmac_test_subkeys(i32 noundef %0, ptr noundef nonnull @.str.4, ptr noundef nonnull @des3_3key_key, i32 noundef 192, ptr noundef nonnull @des3_3key_subkeys, i32 noundef 36, i32 noundef 8)
  %.not42 = icmp eq i32 %18, 0
  br i1 %.not42, label %19, label %25

19:                                               ; preds = %17
  %20 = tail call fastcc i32 @cmac_test_wth_cipher(i32 noundef %0, ptr noundef nonnull @.str.4, ptr noundef nonnull @des3_3key_key, i32 noundef 192, ptr noundef nonnull @des3_message_lengths, ptr noundef nonnull @des3_3key_expected_result, i32 noundef 36, i32 noundef 8)
  %.not43 = icmp eq i32 %20, 0
  br i1 %.not43, label %21, label %25

21:                                               ; preds = %19
  %22 = tail call fastcc i32 @test_aes128_cmac_prf(i32 noundef %0)
  %.not44 = icmp eq i32 %22, 0
  br i1 %.not44, label %23, label %25

23:                                               ; preds = %21
  %.not45 = icmp eq i32 %0, 0
  br i1 %.not45, label %25, label %24

24:                                               ; preds = %23
  %putchar = tail call i32 @putchar(i32 10)
  br label %25

25:                                               ; preds = %23, %24, %21, %19, %17, %15, %13, %11, %9, %7, %5, %3, %1
  %.0 = phi i32 [ %2, %1 ], [ %4, %3 ], [ %6, %5 ], [ %8, %7 ], [ %10, %9 ], [ %12, %11 ], [ %14, %13 ], [ %16, %15 ], [ %18, %17 ], [ %20, %19 ], [ %22, %21 ], [ 0, %24 ], [ 0, %23 ]
  ret i32 %.0
}